(dp0
S'costs'
p1
(lp2
cnumpy.core.multiarray
scalar
p3
(cnumpy
dtype
p4
(S'f4'
p5
I0
I1
tp6
Rp7
(I3
S'<'
p8
NNNI-1
I-1
I0
tp9
bS'w%$J'
p10
tp11
Rp12
ag3
(g7
S'T\x851J'
p13
tp14
Rp15
ag3
(g7
S'\xe4\x11-J'
p16
tp17
Rp18
ag3
(g7
S'Hd\x1aJ'
p19
tp20
Rp21
ag3
(g7
S'\x15\x08\x18J'
p22
tp23
Rp24
ag3
(g7
S'.\xd5\xe7I'
p25
tp26
Rp27
ag3
(g7
S'QWhI'
p28
tp29
Rp30
ag3
(g7
S'\x1a\xcc\x02G'
p31
tp32
Rp33
ag3
(g7
S'oM\xc3C'
p34
tp35
Rp36
ag3
(g7
S'\xb4znB'
p37
tp38
Rp39
ag3
(g7
S'\xb3\x90\x8e@'
p40
tp41
Rp42
ag3
(g7
S'\x1e7\x1e?'
p43
tp44
Rp45
ag3
(g7
S'\xc5\xcb\x12A'
p46
tp47
Rp48
ag3
(g7
S'\xa8e\xda>'
p49
tp50
Rp51
ag3
(g7
S'\x9b\x8bD<'
p52
tp53
Rp54
ag3
(g7
S'\x1c\x17\xbe@'
p55
tp56
Rp57
ag3
(g7
S'\x98t\xa8@'
p58
tp59
Rp60
ag3
(g7
S'\x80\x16\x90?'
p61
tp62
Rp63
ag3
(g7
S'O\xed\x88>'
p64
tp65
Rp66
ag3
(g7
S'\x83\xf6*<'
p67
tp68
Rp69
ag3
(g7
S'\xfc\xed\x11?'
p70
tp71
Rp72
ag3
(g7
S'\xfcD\tA'
p73
tp74
Rp75
ag3
(g7
S'\xcf~R@'
p76
tp77
Rp78
ag3
(g7
S'Az\xc3@'
p79
tp80
Rp81
ag3
(g7
S'q+\x96='
p82
tp83
Rp84
ag3
(g7
S'lK\xed?'
p85
tp86
Rp87
ag3
(g7
S'z\x97A>'
p88
tp89
Rp90
ag3
(g7
S'\xaeGa4'
p91
tp92
Rp93
ag3
(g7
S'\x9d]E?'
p94
tp95
Rp96
ag3
(g7
S'\xb5\xd0\x0e='
p97
tp98
Rp99
ag3
(g7
S'\x8fF\xe10'
p100
tp101
Rp102
ag3
(g7
S'\n4\x14+'
p103
tp104
Rp105
ag3
(g7
S"\x14\xc2\xb8'"
p106
tp107
Rp108
ag3
(g7
S'\x93\x98g+'
p109
tp110
Rp111
ag3
(g7
S'_-U@'
p112
tp113
Rp114
ag3
(g7
S'(;.?'
p115
tp116
Rp117
ag3
(g7
S'\x81F\x1f='
p118
tp119
Rp120
ag3
(g7
S'\xc5\xff-@'
p121
tp122
Rp123
ag3
(g7
S'\x18\xf8\x86?'
p124
tp125
Rp126
ag3
(g7
S'-#X!'
p127
tp128
Rp129
ag3
(g7
S'\x14\xf6B>'
p130
tp131
Rp132
ag3
(g7
S'H\xeb%6'
p133
tp134
Rp135
ag3
(g7
S'O\xc9\xad='
p136
tp137
Rp138
ag3
(g7
S'?\xbf\xd9('
p139
tp140
Rp141
ag3
(g7
S'A\xc9?@'
p142
tp143
Rp144
ag3
(g7
S'H\xd7\xbc\x1b'
p145
tp146
Rp147
ag3
(g7
S'\xa8\x17=?'
p148
tp149
Rp150
ag3
(g7
S'\xb4\xc4c?'
p151
tp152
Rp153
ag3
(g7
S'|Do>'
p154
tp155
Rp156
ag3
(g7
S'\xa8\x11#?'
p157
tp158
Rp159
ag3
(g7
S'\x8c\xab\x89?'
p160
tp161
Rp162
ag3
(g7
S'\xb4Q7>'
p163
tp164
Rp165
ag3
(g7
S'q4\xc4='
p166
tp167
Rp168
ag3
(g7
S"\x94\xb7' "
p169
tp170
Rp171
ag3
(g7
S'\x14\xce\xf5;'
p172
tp173
Rp174
ag3
(g7
S"\x1a\x1f'>"
p175
tp176
Rp177
ag3
(g7
S'\xb8D\xd7$'
p178
tp179
Rp180
ag3
(g7
S'\x94bD?'
p181
tp182
Rp183
ag3
(g7
S'33\x0f8'
p184
tp185
Rp186
ag3
(g7
S'\x8f#9='
p187
tp188
Rp189
ag3
(g7
S'\xa6~\xab*'
p190
tp191
Rp192
ag3
(g7
S'\xed\\\xc0&'
p193
tp194
Rp195
ag3
(g7
S'\xf4\xb4\x1e '
p196
tp197
Rp198
ag3
(g7
S'\xe1*\xe5:'
p199
tp200
Rp201
ag3
(g7
S'\xc6=,='
p202
tp203
Rp204
ag3
(g7
S'\x93\x83#@'
p205
tp206
Rp207
ag3
(g7
S"j\xf2\xe8'"
p208
tp209
Rp210
ag3
(g7
S'{\x14.6'
p211
tp212
Rp213
ag3
(g7
S'\xf3@\xaa='
p214
tp215
Rp216
ag3
(g7
S'\x9a`/\x1f'
p217
tp218
Rp219
ag3
(g7
S'\x85\x01o?'
p220
tp221
Rp222
ag3
(g7
S'\xa4dE?'
p223
tp224
Rp225
ag3
(g7
S'\x0f\x96\xa1='
p226
tp227
Rp228
ag3
(g7
S'f1P>'
p229
tp230
Rp231
ag3
(g7
S'\x96z\xc2='
p232
tp233
Rp234
ag3
(g7
S'j3\x0f?'
p235
tp236
Rp237
ag3
(g7
S'\xdc\xdda4'
p238
tp239
Rp240
ag3
(g7
S'\xea\xcc\x02?'
p241
tp242
Rp243
ag3
(g7
S'\xc6\x11\x9a?'
p244
tp245
Rp246
ag3
(g7
S'\xf45\xb7>'
p247
tp248
Rp249
ag3
(g7
S'\xd2\xfdm\x1b'
p250
tp251
Rp252
ag3
(g7
S'\xd6/\x07%'
p253
tp254
Rp255
ag3
(g7
S'8\n\xa2?'
p256
tp257
Rp258
ag3
(g7
S'v\xe3] '
p259
tp260
Rp261
ag3
(g7
S'\x14\xaeG7'
p262
tp263
Rp264
ag3
(g7
S'\xc3&(?'
p265
tp266
Rp267
ag3
(g7
S'\x01\xfe\x97)'
p268
tp269
Rp270
ag3
(g7
S'\n\xd7#3'
p271
tp272
Rp273
ag3
(g7
S'\xc3\xaf\x05<'
p274
tp275
Rp276
ag3
(g7
S'2\xcc\xd6<'
p277
tp278
Rp279
ag3
(g7
S'\xf2\x86u>'
p280
tp281
Rp282
ag3
(g7
S'\x90\xf3\x85='
p283
tp284
Rp285
ag3
(g7
S'\xc3\xbf\xba='
p286
tp287
Rp288
ag3
(g7
S"ns\xfa'"
p289
tp290
Rp291
ag3
(g7
S')?1='
p292
tp293
Rp294
ag3
(g7
S'\xb1\xe2\xe1='
p295
tp296
Rp297
ag3
(g7
S'R\x84\xda='
p298
tp299
Rp300
ag3
(g7
S'\xec:\x9f;'
p301
tp302
Rp303
ag3
(g7
S'\xf2\xd4F '
p304
tp305
Rp306
ag3
(g7
S"\x92\xb8\xcc'"
p307
tp308
Rp309
ag3
(g7
S'\x05\x01{?'
p310
tp311
Rp312
ag3
(g7
S']\xaa\x05>'
p313
tp314
Rp315
ag3
(g7
S'S\x90\xed '
p316
tp317
Rp318
ag3
(g7
S'\x8aD\xe5-'
p319
tp320
Rp321
ag3
(g7
S'M\x15\xc9>'
p322
tp323
Rp324
ag3
(g7
S'\x80\x83]>'
p325
tp326
Rp327
ag3
(g7
S'C\xaf\xde3'
p328
tp329
Rp330
ag3
(g7
S'\x9fOM?'
p331
tp332
Rp333
ag3
(g7
S'\xce\xf9\x88?'
p334
tp335
Rp336
ag3
(g7
S'3\xdf\x04='
p337
tp338
Rp339
ag3
(g7
S'O\x90\xe4\x14'
p340
tp341
Rp342
ag3
(g7
S'oj2\x1e'
p343
tp344
Rp345
ag3
(g7
S'|\xdf??'
p346
tp347
Rp348
ag3
(g7
S'\xd3\x05\x1d?'
p349
tp350
Rp351
ag3
(g7
S'\xf4\x1e\xcd3'
p352
tp353
Rp354
ag3
(g7
S'\xa5\x98n?'
p355
tp356
Rp357
ag3
(g7
S'\x88a@>'
p358
tp359
Rp360
ag3
(g7
S"$\xde\x89'"
p361
tp362
Rp363
ag3
(g7
S'\x8f\xc2u4'
p364
tp365
Rp366
ag3
(g7
S'\x1a>\x9a='
p367
tp368
Rp369
ag3
(g7
S"\xf7\xf4\xea'"
p370
tp371
Rp372
ag3
(g7
S'R\x8d;?'
p373
tp374
Rp375
ag3
(g7
S'\xc1hk?'
p376
tp377
Rp378
ag3
(g7
S'*\xbbN='
p379
tp380
Rp381
ag3
(g7
S'\xff\x8b\xce='
p382
tp383
Rp384
ag3
(g7
S'c3\xb7?'
p385
tp386
Rp387
ag3
(g7
S'\t\xa1=>'
p388
tp389
Rp390
ag3
(g7
S'\xaa\xc2\xd2?'
p391
tp392
Rp393
ag3
(g7
S'\xf0|\xa15'
p394
tp395
Rp396
ag3
(g7
S'd<\x07&'
p397
tp398
Rp399
ag3
(g7
S'}4\xdc<'
p400
tp401
Rp402
ag3
(g7
S'n\xa4\x1a\x1e'
p403
tp404
Rp405
ag3
(g7
S'\xbd\x87\xf8='
p406
tp407
Rp408
ag3
(g7
S'dx(\x0f'
p409
tp410
Rp411
ag3
(g7
S'\xbd&\x8b>'
p412
tp413
Rp414
ag3
(g7
S'E\xaab&'
p415
tp416
Rp417
ag3
(g7
S'\xb8\x9e2?'
p418
tp419
Rp420
ag3
(g7
S'\xb8\x86\x18>'
p421
tp422
Rp423
ag3
(g7
S'\xcfS\x8c+'
p424
tp425
Rp426
ag3
(g7
S'Q\x03\x13\x1a'
p427
tp428
Rp429
ag3
(g7
S'\n\xd7#4'
p430
tp431
Rp432
ag3
(g7
S':\xd7\xa32'
p433
tp434
Rp435
ag3
(g7
S'\x03\\H"'
p436
tp437
Rp438
ag3
(g7
S'\xa1V\xeb>'
p439
tp440
Rp441
ag3
(g7
S'\xc7\xdc\x15>'
p442
tp443
Rp444
ag3
(g7
S'(\x91=?'
p445
tp446
Rp447
ag3
(g7
S'T\xea\xfa+'
p448
tp449
Rp450
ag3
(g7
S'L\xe7L3'
p451
tp452
Rp453
ag3
(g7
S'\xf9\xfd\x02)'
p454
tp455
Rp456
ag3
(g7
S'\xcf\xb0\xd3>'
p457
tp458
Rp459
ag3
(g7
S'\xdc5\xb3\x1c'
p460
tp461
Rp462
ag3
(g7
S'\x96@I?'
p463
tp464
Rp465
ag3
(g7
S'\xffd\x9e-'
p466
tp467
Rp468
ag3
(g7
S'XX\xb5$'
p469
tp470
Rp471
ag3
(g7
S'\xb6\x88\x8f\x1b'
p472
tp473
Rp474
ag3
(g7
S'<\\$\x1e'
p475
tp476
Rp477
ag3
(g7
S']F\x15?'
p478
tp479
Rp480
ag3
(g7
S'\x1c@2?'
p481
tp482
Rp483
ag3
(g7
S'\x8fT\x12<'
p484
tp485
Rp486
ag3
(g7
S'\n\xd7#4'
p487
tp488
Rp489
ag3
(g7
S'.\xa0\xa5?'
p490
tp491
Rp492
ag3
(g7
S'?2\xd12'
p493
tp494
Rp495
ag3
(g7
S'S9\xc8"'
p496
tp497
Rp498
ag3
(g7
S'\xd7\xc7\xc2:'
p499
tp500
Rp501
ag3
(g7
S':n\x9a?'
p502
tp503
Rp504
ag3
(g7
S'\xac1V?'
p505
tp506
Rp507
ag3
(g7
S')\x90\xd4='
p508
tp509
Rp510
ag3
(g7
S'!\xa5\x01?'
p511
tp512
Rp513
ag3
(g7
S'\xb6h\xb4*'
p514
tp515
Rp516
ag3
(g7
S'6\xabJ>'
p517
tp518
Rp519
ag3
(g7
S'\x96\xfc\xd93'
p520
tp521
Rp522
ag3
(g7
S'\xe4\xfa\xdb<'
p523
tp524
Rp525
ag3
(g7
S'\x8f\xbb\xbb\x16'
p526
tp527
Rp528
ag3
(g7
S'\x99\xba\x0f '
p529
tp530
Rp531
ag3
(g7
S'3\xca\xd4='
p532
tp533
Rp534
ag3
(g7
S'\xe0l\xa5>'
p535
tp536
Rp537
ag3
(g7
S'\xa0\xb4\x16?'
p538
tp539
Rp540
ag3
(g7
S'\x8f\xc2u4'
p541
tp542
Rp543
ag3
(g7
S'\xd3\xe5\xae?'
p544
tp545
Rp546
ag3
(g7
S'd\xb5\xd9>'
p547
tp548
Rp549
ag3
(g7
S'\x8fn\xa6>'
p550
tp551
Rp552
ag3
(g7
S'\xbaw)?'
p553
tp554
Rp555
ag3
(g7
S'\x8ci1?'
p556
tp557
Rp558
ag3
(g7
S'w\x92\xc7>'
p559
tp560
Rp561
ag3
(g7
S'\x00\xb6\xb7?'
p562
tp563
Rp564
ag3
(g7
S'\xca\xe5\xe2$'
p565
tp566
Rp567
ag3
(g7
S'\x1f\xf0?>'
p568
tp569
Rp570
ag3
(g7
S'\xba\x02{?'
p571
tp572
Rp573
ag3
(g7
S'\xff\x04\x9f>'
p574
tp575
Rp576
ag3
(g7
S'\x88&\xa1='
p577
tp578
Rp579
ag3
(g7
S'\r\xf63%'
p580
tp581
Rp582
ag3
(g7
S'\\\xa6\xb3<'
p583
tp584
Rp585
ag3
(g7
S'\xae\xf7\x9a<'
p586
tp587
Rp588
ag3
(g7
S'\xb8\xee\x19?'
p589
tp590
Rp591
ag3
(g7
S'\x8c\xe1\x82+'
p592
tp593
Rp594
ag3
(g7
S'\n\xe4+#'
p595
tp596
Rp597
ag3
(g7
S'\xec\x88\x104'
p598
tp599
Rp600
ag3
(g7
S'\x96\xaf\x85\x1e'
p601
tp602
Rp603
ag3
(g7
S'\x86\xa3Y?'
p604
tp605
Rp606
ag3
(g7
S'\n\xd7#4'
p607
tp608
Rp609
ag3
(g7
S'\xd8w\x06)'
p610
tp611
Rp612
ag3
(g7
S'\xb8b\xa3?'
p613
tp614
Rp615
ag3
(g7
S'\xb8\x11\xf0='
p616
tp617
Rp618
ag3
(g7
S'\x88\xc9\xc7%'
p619
tp620
Rp621
ag3
(g7
S'\n\xd7#4'
p622
tp623
Rp624
ag3
(g7
S'\x98\x83L%'
p625
tp626
Rp627
ag3
(g7
S'\xea\x8cE>'
p628
tp629
Rp630
ag3
(g7
S'\x112b>'
p631
tp632
Rp633
ag3
(g7
S'\xac\xdc\x85+'
p634
tp635
Rp636
ag3
(g7
S'\xccJ\x8f>'
p637
tp638
Rp639
ag3
(g7
S'\xddV\x8d#'
p640
tp641
Rp642
ag3
(g7
S'\x86c\x05#'
p643
tp644
Rp645
ag3
(g7
S'\xaa\xde+%'
p646
tp647
Rp648
ag3
(g7
S'Cq\x16\x1d'
p649
tp650
Rp651
ag3
(g7
S',\x9f.?'
p652
tp653
Rp654
ag3
(g7
S'\xca?X\x19'
p655
tp656
Rp657
ag3
(g7
S'\xfa\x1c\x18?'
p658
tp659
Rp660
ag3
(g7
S'\xcd\x00\x9c='
p661
tp662
Rp663
ag3
(g7
S'\x1aZ\x9f\x1c'
p664
tp665
Rp666
ag3
(g7
S'\xf3\x87\x8e$'
p667
tp668
Rp669
ag3
(g7
S'\x08\xf7\x83='
p670
tp671
Rp672
ag3
(g7
S'{\xa4\x97='
p673
tp674
Rp675
ag3
(g7
S'\xb4\x9c\x01$'
p676
tp677
Rp678
ag3
(g7
S'\xc8k\xa5\x1a'
p679
tp680
Rp681
ag3
(g7
S'w\xe1\xba3'
p682
tp683
Rp684
ag3
(g7
S'E\xe1\xf2='
p685
tp686
Rp687
ag3
(g7
S'\xbb\xa5+?'
p688
tp689
Rp690
ag3
(g7
S'\xae\xa9\x86='
p691
tp692
Rp693
ag3
(g7
S'R(\xb1<'
p694
tp695
Rp696
ag3
(g7
S'@\xa7\x1a?'
p697
tp698
Rp699
ag3
(g7
S'C\xca\xd3>'
p700
tp701
Rp702
ag3
(g7
S'\xf2\xd0}\x18'
p703
tp704
Rp705
ag3
(g7
S'\xa1\xedf?'
p706
tp707
Rp708
ag3
(g7
S'\xe52\x90?'
p709
tp710
Rp711
ag3
(g7
S'\x9c\xe1\x13%'
p712
tp713
Rp714
ag3
(g7
S'\x83\xdd\xb7<'
p715
tp716
Rp717
ag3
(g7
S'\xf3\r\x8f%'
p718
tp719
Rp720
ag3
(g7
S'\x1cs\x99\x1c'
p721
tp722
Rp723
ag3
(g7
S'\xc3\x87\x07>'
p724
tp725
Rp726
ag3
(g7
S'\x9b\xeb\xb3='
p727
tp728
Rp729
ag3
(g7
S'\x07|\r>'
p730
tp731
Rp732
ag3
(g7
S'\xb8\x1e\x855'
p733
tp734
Rp735
ag3
(g7
S'e\xc3\xba>'
p736
tp737
Rp738
ag3
(g7
S'\n\xd7\xa35'
p739
tp740
Rp741
ag3
(g7
S'.\x8d\xe0?'
p742
tp743
Rp744
ag3
(g7
S'\\pI?'
p745
tp746
Rp747
ag3
(g7
S'\xdd\x03&?'
p748
tp749
Rp750
ag3
(g7
S'F\xbdd\x1a'
p751
tp752
Rp753
ag3
(g7
S'\x93A\x97>'
p754
tp755
Rp756
ag3
(g7
S'\x9aHo&'
p757
tp758
Rp759
ag3
(g7
S'\xf8\x15\x8a='
p760
tp761
Rp762
ag3
(g7
S'\xdd\xe0e('
p763
tp764
Rp765
ag3
(g7
S'\xf6F@<'
p766
tp767
Rp768
ag3
(g7
S'\x14\xe9\xaf\x15'
p769
tp770
Rp771
ag3
(g7
S'\x1a\x8dA!'
p772
tp773
Rp774
ag3
(g7
S'\xfa_\x1e>'
p775
tp776
Rp777
ag3
(g7
S'\n\xd7\xa34'
p778
tp779
Rp780
ag3
(g7
S'\\\xf7\xda<'
p781
tp782
Rp783
ag3
(g7
S'\xaf%\xec\x1d'
p784
tp785
Rp786
ag3
(g7
S'3\xa2N2'
p787
tp788
Rp789
ag3
(g7
S'?03?'
p790
tp791
Rp792
ag3
(g7
S'\xdc\xbd\x10='
p793
tp794
Rp795
ag3
(g7
S'N\x84w4'
p796
tp797
Rp798
ag3
(g7
S"\xf8\x04\xb2'"
p799
tp800
Rp801
ag3
(g7
S'3\xe4{='
p802
tp803
Rp804
ag3
(g7
S'\x143\xd6>'
p805
tp806
Rp807
ag3
(g7
S'&\xee\x8e\x1b'
p808
tp809
Rp810
ag3
(g7
S'.\xb5\xb0\x18'
p811
tp812
Rp813
ag3
(g7
S'\x89z\xed?'
p814
tp815
Rp816
ag3
(g7
S'\ng[<'
p817
tp818
Rp819
ag3
(g7
S'\xddh\xa39'
p820
tp821
Rp822
ag3
(g7
S'V\x7f\x11>'
p823
tp824
Rp825
ag3
(g7
S'_\xc2\xc9>'
p826
tp827
Rp828
ag3
(g7
S'\x1c\xc8E>'
p829
tp830
Rp831
ag3
(g7
S'\xcd\xcc\xcc4'
p832
tp833
Rp834
ag3
(g7
S'J\xd4\xb8?'
p835
tp836
Rp837
ag3
(g7
S'\xcdi">'
p838
tp839
Rp840
ag3
(g7
S'\n\xd7\xa34'
p841
tp842
Rp843
ag3
(g7
S'\xa8-!?'
p844
tp845
Rp846
ag3
(g7
S'\x80\xd1\xea>'
p847
tp848
Rp849
ag3
(g7
S'6\xb4W\x1b'
p850
tp851
Rp852
ag3
(g7
S'\n\xe9\xa5<'
p853
tp854
Rp855
ag3
(g7
S'\xbc\xe6#4'
p856
tp857
Rp858
ag3
(g7
S'\x80S\xbe+'
p859
tp860
Rp861
ag3
(g7
S'\xb6"M)'
p862
tp863
Rp864
ag3
(g7
S'X\x06\x9c!'
p865
tp866
Rp867
ag3
(g7
S'V\xd6^"'
p868
tp869
Rp870
ag3
(g7
S'\xa69\xa9>'
p871
tp872
Rp873
ag3
(g7
S'\nJ\xac='
p874
tp875
Rp876
ag3
(g7
S'\x01\x82o)'
p877
tp878
Rp879
ag3
(g7
S'&\x86\x9b<'
p880
tp881
Rp882
ag3
(g7
S'\x8e\x95f '
p883
tp884
Rp885
ag3
(g7
S'\xf3\x02\xb6='
p886
tp887
Rp888
ag3
(g7
S'\x83\x90\x0c$'
p889
tp890
Rp891
ag3
(g7
S'\x15g\t>'
p892
tp893
Rp894
ag3
(g7
S'i\xee\xd6>'
p895
tp896
Rp897
ag3
(g7
S'f\x84\xd7='
p898
tp899
Rp900
ag3
(g7
S'\x0b=\x8a?'
p901
tp902
Rp903
ag3
(g7
S'\xef\xe6\x05\x1f'
p904
tp905
Rp906
ag3
(g7
S'\xd7\xd3\x1f<'
p907
tp908
Rp909
ag3
(g7
S' \xdf=\x14'
p910
tp911
Rp912
ag3
(g7
S'\xf7\x8f=!'
p913
tp914
Rp915
ag3
(g7
S'\xb4\xc14\x19'
p916
tp917
Rp918
ag3
(g7
S'\xc8\xa2\x98$'
p919
tp920
Rp921
ag3
(g7
S'\xd3\xaf\x01>'
p922
tp923
Rp924
ag3
(g7
S'\xa5<\x1b\x13'
p925
tp926
Rp927
ag3
(g7
S'n\xaf\xea>'
p928
tp929
Rp930
ag3
(g7
S"/\x92'("
p931
tp932
Rp933
ag3
(g7
S'\x1byr='
p934
tp935
Rp936
ag3
(g7
S's\x0ba-'
p937
tp938
Rp939
ag3
(g7
S'5B\xa2\x19'
p940
tp941
Rp942
ag3
(g7
S'N; #'
p943
tp944
Rp945
ag3
(g7
S'\x8f\xc2\xf54'
p946
tp947
Rp948
ag3
(g7
S'&\xcf\x8b='
p949
tp950
Rp951
ag3
(g7
S'8\xe3\x90#'
p952
tp953
Rp954
ag3
(g7
S'z\x96\x9d-'
p955
tp956
Rp957
ag3
(g7
S'\xcd\xcac<'
p958
tp959
Rp960
ag3
(g7
S'\xc3\xfeC,'
p961
tp962
Rp963
ag3
(g7
S"\xf4'\xb9$"
p964
tp965
Rp966
ag3
(g7
S'\xccS\x0e)'
p967
tp968
Rp969
ag3
(g7
S'\xa6\xc2u5'
p970
tp971
Rp972
ag3
(g7
S'\xae[\xd8>'
p973
tp974
Rp975
ag3
(g7
S'x\xed)\x1d'
p976
tp977
Rp978
ag3
(g7
S'\xa4\x13\xa8\x18'
p979
tp980
Rp981
ag3
(g7
S'\x9a\x99\x994'
p982
tp983
Rp984
ag3
(g7
S'*T\x94>'
p985
tp986
Rp987
ag3
(g7
S'\x98\xd21?'
p988
tp989
Rp990
ag3
(g7
S'z\x0b\xd0='
p991
tp992
Rp993
ag3
(g7
S'=\\T>'
p994
tp995
Rp996
ag3
(g7
S'\xbd\xd3a>'
p997
tp998
Rp999
ag3
(g7
S';\x854\x1c'
p1000
tp1001
Rp1002
ag3
(g7
S'8\xc1\xc0%'
p1003
tp1004
Rp1005
ag3
(g7
S'\xb7%\xbb>'
p1006
tp1007
Rp1008
ag3
(g7
S'D\\\xbd\x1f'
p1009
tp1010
Rp1011
ag3
(g7
S'\x80\xaa\xbc"'
p1012
tp1013
Rp1014
ag3
(g7
S'\x14\xb5\x05"'
p1015
tp1016
Rp1017
ag3
(g7
S'\x83;c?'
p1018
tp1019
Rp1020
ag3
(g7
S'\xe4\xd4\xc2>'
p1021
tp1022
Rp1023
ag3
(g7
S'\xc10t='
p1024
tp1025
Rp1026
ag3
(g7
S'\xf8\xd7\xa33'
p1027
tp1028
Rp1029
ag3
(g7
S'\xa4\x94\xaa<'
p1030
tp1031
Rp1032
ag3
(g7
S'M\t\xc69'
p1033
tp1034
Rp1035
ag3
(g7
S'\xc8\x90\xf4$'
p1036
tp1037
Rp1038
ag3
(g7
S'\x17\xf9\xd8&'
p1039
tp1040
Rp1041
ag3
(g7
S'E9\x95='
p1042
tp1043
Rp1044
ag3
(g7
S'\x80YE5'
p1045
tp1046
Rp1047
ag3
(g7
S';/\xdf>'
p1048
tp1049
Rp1050
ag3
(g7
S'_D$?'
p1051
tp1052
Rp1053
ag3
(g7
S'#H\x02!'
p1054
tp1055
Rp1056
ag3
(g7
S'\x1ab\x12;'
p1057
tp1058
Rp1059
ag3
(g7
S'1[`('
p1060
tp1061
Rp1062
ag3
(g7
S'\x9e\xe9\x8f>'
p1063
tp1064
Rp1065
ag3
(g7
S'h\xc2\xb1,'
p1066
tp1067
Rp1068
ag3
(g7
S'oi\xa6,'
p1069
tp1070
Rp1071
ag3
(g7
S'\xfa2\x91#'
p1072
tp1073
Rp1074
ag3
(g7
S')\xc4\x1a='
p1075
tp1076
Rp1077
ag3
(g7
S'\xd1\xa5\x08&'
p1078
tp1079
Rp1080
ag3
(g7
S's$\xc5>'
p1081
tp1082
Rp1083
ag3
(g7
S'!\xdb-$'
p1084
tp1085
Rp1086
ag3
(g7
S'`\xc1\xba$'
p1087
tp1088
Rp1089
ag3
(g7
S'\xc0,\xd7\x1e'
p1090
tp1091
Rp1092
ag3
(g7
S'X(\x91\x1d'
p1093
tp1094
Rp1095
ag3
(g7
S'\x98\xbdI?'
p1096
tp1097
Rp1098
ag3
(g7
S'\xff\x99{4'
p1099
tp1100
Rp1101
ag3
(g7
S'/\t.\x19'
p1102
tp1103
Rp1104
ag3
(g7
S'\x80\x06\x85*'
p1105
tp1106
Rp1107
ag3
(g7
S'\xafNS.'
p1108
tp1109
Rp1110
ag3
(g7
S'\xb6)\x15$'
p1111
tp1112
Rp1113
ag3
(g7
S'mJ\xaa)'
p1114
tp1115
Rp1116
ag3
(g7
S'k\xf0\x994'
p1117
tp1118
Rp1119
ag3
(g7
S'\x00\xd0"<'
p1120
tp1121
Rp1122
ag3
(g7
S'\xbb\x03e;'
p1123
tp1124
Rp1125
ag3
(g7
S'\xba0\xda\x1b'
p1126
tp1127
Rp1128
ag3
(g7
S';\xaa`?'
p1129
tp1130
Rp1131
ag3
(g7
S'_\xee\xcb\x13'
p1132
tp1133
Rp1134
ag3
(g7
S'}\x84N>'
p1135
tp1136
Rp1137
ag3
(g7
S'#)\x80!'
p1138
tp1139
Rp1140
ag3
(g7
S'\xe0k\xe6\x17'
p1141
tp1142
Rp1143
asS'lr'
p1144
g3
(g4
(S'f8'
p1145
I0
I1
tp1146
Rp1147
(I3
S'<'
p1148
NNNI-1
I-1
I0
tp1149
bS'\xd8M1\xdeP\xa0T?'
p1150
tp1151
Rp1152
sS'momentum'
p1153
g3
(g1147
S'\xf2\x8b%\xbfX\xf2\xeb?'
p1154
tp1155
Rp1156
s.