(dp0
S'costs'
p1
(lp2
cnumpy.core.multiarray
scalar
p3
(cnumpy
dtype
p4
(S'f4'
p5
I0
I1
tp6
Rp7
(I3
S'<'
p8
NNNI-1
I-1
I0
tp9
bS'\xbd\xf6)J'
p10
tp11
Rp12
ag3
(g7
S'Q\xd9\x1bJ'
p13
tp14
Rp15
ag3
(g7
S'/\xc9\x1eJ'
p16
tp17
Rp18
ag3
(g7
S'q%\xa5I'
p19
tp20
Rp21
ag3
(g7
S'\x96t\x84I'
p22
tp23
Rp24
ag3
(g7
S'\xe6\x9c&E'
p25
tp26
Rp27
ag3
(g7
S'\x91\x86,D'
p28
tp29
Rp30
ag3
(g7
S'\xf4\xbc\xd1B'
p31
tp32
Rp33
ag3
(g7
S'h\tUB'
p34
tp35
Rp36
ag3
(g7
S'\xc9\xa4\xbeA'
p37
tp38
Rp39
ag3
(g7
S'\x9a\xd3\x92@'
p40
tp41
Rp42
ag3
(g7
S'\xf14\xa4@'
p43
tp44
Rp45
ag3
(g7
S'\xdc#\xe1@'
p46
tp47
Rp48
ag3
(g7
S'\xd4r\xb8>'
p49
tp50
Rp51
ag3
(g7
S'\xd3#\xf7?'
p52
tp53
Rp54
ag3
(g7
S'\x88^\xb6?'
p55
tp56
Rp57
ag3
(g7
S'.\x84\xab?'
p58
tp59
Rp60
ag3
(g7
S'o`\xec>'
p61
tp62
Rp63
ag3
(g7
S'\xe0\x1d\x88='
p64
tp65
Rp66
ag3
(g7
S'\x06\xe4\x18>'
p67
tp68
Rp69
ag3
(g7
S'\xf3F\xa3='
p70
tp71
Rp72
ag3
(g7
S'\xdf\xf7|>'
p73
tp74
Rp75
ag3
(g7
S'\xb4J\xf6<'
p76
tp77
Rp78
ag3
(g7
S'&\xc8\xfb;'
p79
tp80
Rp81
ag3
(g7
S'YL\xa1<'
p82
tp83
Rp84
ag3
(g7
S'\xfbHM<'
p85
tp86
Rp87
ag3
(g7
S'\xbcC\x08<'
p88
tp89
Rp90
ag3
(g7
S'E\xd1\xb5;'
p91
tp92
Rp93
ag3
(g7
S'\x94\xd6\xfa:'
p94
tp95
Rp96
ag3
(g7
S'1\x84\xf1<'
p97
tp98
Rp99
ag3
(g7
S'\x9d\xaf\x05='
p100
tp101
Rp102
ag3
(g7
S'g\xed\x94:'
p103
tp104
Rp105
ag3
(g7
S'w\x8e\xfe8'
p106
tp107
Rp108
ag3
(g7
S'\x92\x8c^;'
p109
tp110
Rp111
ag3
(g7
S'\xf8\xd3\x06<'
p112
tp113
Rp114
ag3
(g7
S'\\\x06@<'
p115
tp116
Rp117
ag3
(g7
S'S\xf6\xce;'
p118
tp119
Rp120
ag3
(g7
S'?I\xd3<'
p121
tp122
Rp123
ag3
(g7
S'HI\x8b;'
p124
tp125
Rp126
ag3
(g7
S'\xa4YD;'
p127
tp128
Rp129
ag3
(g7
S'8\x01V<'
p130
tp131
Rp132
ag3
(g7
S'L\xfa\xd9;'
p133
tp134
Rp135
ag3
(g7
S'\xad\xe8\xa0<'
p136
tp137
Rp138
ag3
(g7
S'\x99\x7f\x97;'
p139
tp140
Rp141
ag3
(g7
S'\x81w\x80;'
p142
tp143
Rp144
ag3
(g7
S'\x9a\xe9\x12;'
p145
tp146
Rp147
ag3
(g7
S'\xcc\r\t;'
p148
tp149
Rp150
ag3
(g7
S'\xa4\xb0\xbe:'
p151
tp152
Rp153
ag3
(g7
S'r\x1e\xe6;'
p154
tp155
Rp156
ag3
(g7
S'\xd8\xc8\t<'
p157
tp158
Rp159
ag3
(g7
S'\x96\xb8X;'
p160
tp161
Rp162
ag3
(g7
S'\x84-\x1d;'
p163
tp164
Rp165
ag3
(g7
S'*\xfd\xbb:'
p166
tp167
Rp168
ag3
(g7
S'd\xf8\x1e9'
p169
tp170
Rp171
ag3
(g7
S'\r\xe9<;'
p172
tp173
Rp174
ag3
(g7
S'\xfc\xe5\x8d;'
p175
tp176
Rp177
ag3
(g7
S'!\x1d\x91;'
p178
tp179
Rp180
ag3
(g7
S'\xf3H\x04<'
p181
tp182
Rp183
ag3
(g7
S'Xsb:'
p184
tp185
Rp186
ag3
(g7
S']\xe2\xbc:'
p187
tp188
Rp189
ag3
(g7
S'\xff^K<'
p190
tp191
Rp192
ag3
(g7
S'\xf1\x924<'
p193
tp194
Rp195
ag3
(g7
S'X\xf5\xb2;'
p196
tp197
Rp198
ag3
(g7
S'Q\x94\x9b;'
p199
tp200
Rp201
ag3
(g7
S'_\x7f\x1c<'
p202
tp203
Rp204
ag3
(g7
S'\xffy\xa0;'
p205
tp206
Rp207
ag3
(g7
S'\x1d$%<'
p208
tp209
Rp210
ag3
(g7
S'\x00\x800;'
p211
tp212
Rp213
ag3
(g7
S'\x01u\xb5:'
p214
tp215
Rp216
ag3
(g7
S'\x96m\xda;'
p217
tp218
Rp219
ag3
(g7
S'D v<'
p220
tp221
Rp222
ag3
(g7
S'\x1d\xe0\x88:'
p223
tp224
Rp225
ag3
(g7
S'\xc9\x7f\xa4;'
p226
tp227
Rp228
ag3
(g7
S'\xdbd-;'
p229
tp230
Rp231
ag3
(g7
S'o\xb9D;'
p232
tp233
Rp234
ag3
(g7
S'\x01\x98\xc2;'
p235
tp236
Rp237
ag3
(g7
S'\xaf\xe72;'
p238
tp239
Rp240
ag3
(g7
S'\x89\xf3j;'
p241
tp242
Rp243
ag3
(g7
S'\xe5/\xc2:'
p244
tp245
Rp246
ag3
(g7
S'h\x9a\x119'
p247
tp248
Rp249
ag3
(g7
S'r&\xae;'
p250
tp251
Rp252
ag3
(g7
S'D[\x0e;'
p253
tp254
Rp255
ag3
(g7
S'\xc2\xc9\x11;'
p256
tp257
Rp258
ag3
(g7
S'_\xd1\x01<'
p259
tp260
Rp261
ag3
(g7
S'\xdb\x0cv;'
p262
tp263
Rp264
ag3
(g7
S';\xf4\xbb:'
p265
tp266
Rp267
ag3
(g7
S'\x0f\xa6N:'
p268
tp269
Rp270
ag3
(g7
S'\x84I\xbf:'
p271
tp272
Rp273
ag3
(g7
S'\xecc#;'
p274
tp275
Rp276
ag3
(g7
S'\xcc\xbe\x80;'
p277
tp278
Rp279
ag3
(g7
S"\xa5'\x879"
p280
tp281
Rp282
ag3
(g7
S'\x9c\x03\xb6;'
p283
tp284
Rp285
ag3
(g7
S'\xe5\xe9\xa9:'
p286
tp287
Rp288
ag3
(g7
S'N\xdc\x07<'
p289
tp290
Rp291
ag3
(g7
S'x\xe1\x00;'
p292
tp293
Rp294
ag3
(g7
S'd\xac\xbf:'
p295
tp296
Rp297
ag3
(g7
S'N)\xe7;'
p298
tp299
Rp300
ag3
(g7
S'\x1bE\xf9:'
p301
tp302
Rp303
ag3
(g7
S'=\xbc+<'
p304
tp305
Rp306
ag3
(g7
S'v\xb2)<'
p307
tp308
Rp309
ag3
(g7
S'Kq\x80;'
p310
tp311
Rp312
ag3
(g7
S'\xba\xa7T;'
p313
tp314
Rp315
ag3
(g7
S'\xcf\x18\x98;'
p316
tp317
Rp318
ag3
(g7
S'\x8d\xa5\xa3;'
p319
tp320
Rp321
ag3
(g7
S'\xe3\xa6\x99:'
p322
tp323
Rp324
ag3
(g7
S'6v\xc2;'
p325
tp326
Rp327
ag3
(g7
S'@\x12\xa7<'
p328
tp329
Rp330
ag3
(g7
S'/}\xed:'
p331
tp332
Rp333
ag3
(g7
S'\xec\xd3\x94;'
p334
tp335
Rp336
ag3
(g7
S'\x08\x9b\xf8;'
p337
tp338
Rp339
ag3
(g7
S'\xb4^H<'
p340
tp341
Rp342
ag3
(g7
S'\x8c\xa0L;'
p343
tp344
Rp345
ag3
(g7
S'\xc1\xd2\xfc:'
p346
tp347
Rp348
ag3
(g7
S'J:\x82<'
p349
tp350
Rp351
ag3
(g7
S'\x80\x06j:'
p352
tp353
Rp354
ag3
(g7
S'D\x10\xc7:'
p355
tp356
Rp357
ag3
(g7
S'\x1a\x91d;'
p358
tp359
Rp360
ag3
(g7
S'\xd1\x98\x83;'
p361
tp362
Rp363
ag3
(g7
S'\xd2\xab\xca;'
p364
tp365
Rp366
ag3
(g7
S'\xc9:\x95;'
p367
tp368
Rp369
ag3
(g7
S'\xbf\xcbN8'
p370
tp371
Rp372
ag3
(g7
S'\x03\xa4T<'
p373
tp374
Rp375
ag3
(g7
S'\x02`\x0e:'
p376
tp377
Rp378
ag3
(g7
S'\x1f\x0b,;'
p379
tp380
Rp381
ag3
(g7
S'\xeeX\xc0;'
p382
tp383
Rp384
ag3
(g7
S'\x01\x8c\x1b8'
p385
tp386
Rp387
ag3
(g7
S'\x19\xf0\x11;'
p388
tp389
Rp390
ag3
(g7
S'\xb2\x9b<;'
p391
tp392
Rp393
ag3
(g7
S'8\xaa\x12:'
p394
tp395
Rp396
ag3
(g7
S':`S;'
p397
tp398
Rp399
ag3
(g7
S'=T\x91<'
p400
tp401
Rp402
ag3
(g7
S'jo\xf1:'
p403
tp404
Rp405
ag3
(g7
S'\x01D\x8c:'
p406
tp407
Rp408
ag3
(g7
S'Q\xaa^<'
p409
tp410
Rp411
ag3
(g7
S'{K\xc6:'
p412
tp413
Rp414
ag3
(g7
S'\x1aM\xba;'
p415
tp416
Rp417
ag3
(g7
S'\x00\x9a\xbf;'
p418
tp419
Rp420
ag3
(g7
S's\xe1q;'
p421
tp422
Rp423
ag3
(g7
S'\x02f\t;'
p424
tp425
Rp426
ag3
(g7
S'\r\xb3T;'
p427
tp428
Rp429
ag3
(g7
S'\x1b1\xae9'
p430
tp431
Rp432
ag3
(g7
S'\xd2\x85\xc3;'
p433
tp434
Rp435
ag3
(g7
S'\xb1y\x04:'
p436
tp437
Rp438
ag3
(g7
S'\xc6\xed\xb5:'
p439
tp440
Rp441
ag3
(g7
S'\x165\x90;'
p442
tp443
Rp444
ag3
(g7
S'M\xca\x1a:'
p445
tp446
Rp447
ag3
(g7
S'\x8d\xaa\x08<'
p448
tp449
Rp450
ag3
(g7
S'\xb2\xa9U;'
p451
tp452
Rp453
ag3
(g7
S'\x0e\x8d\xb0;'
p454
tp455
Rp456
ag3
(g7
S'I\x87\xa9;'
p457
tp458
Rp459
ag3
(g7
S'\xbf\xda\xd1;'
p460
tp461
Rp462
ag3
(g7
S'\xe0\x90^:'
p463
tp464
Rp465
ag3
(g7
S'\xd8+I:'
p466
tp467
Rp468
ag3
(g7
S'\xfc\xee\xa3;'
p469
tp470
Rp471
ag3
(g7
S'\x9e<\x15;'
p472
tp473
Rp474
ag3
(g7
S'\xbds\x8f:'
p475
tp476
Rp477
ag3
(g7
S'\xcdJ\xde;'
p478
tp479
Rp480
ag3
(g7
S'\xc9$\x0f;'
p481
tp482
Rp483
ag3
(g7
S'\t\xe7Z;'
p484
tp485
Rp486
ag3
(g7
S'\xd4\xcd\x9a:'
p487
tp488
Rp489
ag3
(g7
S'\xa6J&;'
p490
tp491
Rp492
ag3
(g7
S' \xa6\xe5;'
p493
tp494
Rp495
ag3
(g7
S'hw<:'
p496
tp497
Rp498
ag3
(g7
S'\xa4p,:'
p499
tp500
Rp501
ag3
(g7
S'{\x0e7:'
p502
tp503
Rp504
ag3
(g7
S'\x13\x89\xa1;'
p505
tp506
Rp507
ag3
(g7
S'j\xa9\x81:'
p508
tp509
Rp510
ag3
(g7
S'\x7f4G;'
p511
tp512
Rp513
ag3
(g7
S'E\x03\xba;'
p514
tp515
Rp516
ag3
(g7
S'\x03<\x13;'
p517
tp518
Rp519
ag3
(g7
S'V@!<'
p520
tp521
Rp522
ag3
(g7
S'n\x99\xf8:'
p523
tp524
Rp525
ag3
(g7
S'DR";'
p526
tp527
Rp528
ag3
(g7
S'\xc5\n\xdc:'
p529
tp530
Rp531
ag3
(g7
S'\x8f\xc8"<'
p532
tp533
Rp534
ag3
(g7
S'1\xd3\xc1:'
p535
tp536
Rp537
ag3
(g7
S'\xd6\xddF;'
p538
tp539
Rp540
ag3
(g7
S'\x0c\x1f\xa6;'
p541
tp542
Rp543
ag3
(g7
S'\x08\xbd(:'
p544
tp545
Rp546
ag3
(g7
S'7\x1e1;'
p547
tp548
Rp549
ag3
(g7
S'\xf1:\xd5:'
p550
tp551
Rp552
ag3
(g7
S'\x9f\x96^;'
p553
tp554
Rp555
ag3
(g7
S'\x19W\x05<'
p556
tp557
Rp558
ag3
(g7
S'\x83&\xe2;'
p559
tp560
Rp561
ag3
(g7
S'S\r\xa1;'
p562
tp563
Rp564
ag3
(g7
S'4C\xb2;'
p565
tp566
Rp567
ag3
(g7
S'\xe8{\xf49'
p568
tp569
Rp570
ag3
(g7
S'-\x89S;'
p571
tp572
Rp573
ag3
(g7
S'\xf8\x8d\x96;'
p574
tp575
Rp576
ag3
(g7
S'\xd4\\\xa9:'
p577
tp578
Rp579
ag3
(g7
S'\x9f`\xa7;'
p580
tp581
Rp582
ag3
(g7
S'\x05\x08F;'
p583
tp584
Rp585
ag3
(g7
S'\xfa\x90\xd7:'
p586
tp587
Rp588
ag3
(g7
S'\xc8\xff\x80;'
p589
tp590
Rp591
ag3
(g7
S';\x9fz;'
p592
tp593
Rp594
ag3
(g7
S'\x97\xed9;'
p595
tp596
Rp597
ag3
(g7
S'*\xee\x16:'
p598
tp599
Rp600
ag3
(g7
S'\\J\xec:'
p601
tp602
Rp603
ag3
(g7
S'|h\x17;'
p604
tp605
Rp606
ag3
(g7
S'\xfd\x83\xd5:'
p607
tp608
Rp609
ag3
(g7
S']!\xdb:'
p610
tp611
Rp612
ag3
(g7
S'\x08\xdaw;'
p613
tp614
Rp615
ag3
(g7
S'<Z\x00:'
p616
tp617
Rp618
ag3
(g7
S'\xd3\xd7\x1b;'
p619
tp620
Rp621
ag3
(g7
S'5\xf6\x929'
p622
tp623
Rp624
ag3
(g7
S'\xef\xcc\x00:'
p625
tp626
Rp627
ag3
(g7
S'\x100\x8b;'
p628
tp629
Rp630
ag3
(g7
S'q\x8cG;'
p631
tp632
Rp633
ag3
(g7
S'\xe6N\x95;'
p634
tp635
Rp636
ag3
(g7
S'\xc0\x8ee;'
p637
tp638
Rp639
ag3
(g7
S'\xfcR\x86:'
p640
tp641
Rp642
ag3
(g7
S't1\x7f:'
p643
tp644
Rp645
ag3
(g7
S'VH\x9a9'
p646
tp647
Rp648
ag3
(g7
S'\ng\x81:'
p649
tp650
Rp651
ag3
(g7
S'&U\xf5:'
p652
tp653
Rp654
ag3
(g7
S'\xd1&\xeb9'
p655
tp656
Rp657
ag3
(g7
S'fm\xd4:'
p658
tp659
Rp660
ag3
(g7
S'\xe1\xce\xcb;'
p661
tp662
Rp663
ag3
(g7
S'1\x00\xf3:'
p664
tp665
Rp666
ag3
(g7
S't\xc5Y;'
p667
tp668
Rp669
ag3
(g7
S'\xcd\x93\xa9;'
p670
tp671
Rp672
ag3
(g7
S'\x81\xbbD:'
p673
tp674
Rp675
ag3
(g7
S'\xaf\x18\x02;'
p676
tp677
Rp678
ag3
(g7
S"D'\xf1:"
p679
tp680
Rp681
ag3
(g7
S'W\x88d;'
p682
tp683
Rp684
ag3
(g7
S'ZS\xf9:'
p685
tp686
Rp687
ag3
(g7
S'\xfdM5;'
p688
tp689
Rp690
ag3
(g7
S'\xfd\xc7Q;'
p691
tp692
Rp693
ag3
(g7
S')\xff\xcf:'
p694
tp695
Rp696
ag3
(g7
S'\xdf\xe0[;'
p697
tp698
Rp699
ag3
(g7
S'\x8d\x114;'
p700
tp701
Rp702
ag3
(g7
S'&4\x18<'
p703
tp704
Rp705
ag3
(g7
S'S8\x8e7'
p706
tp707
Rp708
ag3
(g7
S'\xb4"j;'
p709
tp710
Rp711
ag3
(g7
S'\xce\x03L:'
p712
tp713
Rp714
ag3
(g7
S'~\xc2\x01;'
p715
tp716
Rp717
ag3
(g7
S'ccE;'
p718
tp719
Rp720
ag3
(g7
S'\xea\x9fX;'
p721
tp722
Rp723
ag3
(g7
S'\x1cQ\x17;'
p724
tp725
Rp726
ag3
(g7
S'\xf2\xd5\xe6;'
p727
tp728
Rp729
ag3
(g7
S'.Px;'
p730
tp731
Rp732
ag3
(g7
S'j\xeb\t;'
p733
tp734
Rp735
ag3
(g7
S'\xfes\x0f;'
p736
tp737
Rp738
ag3
(g7
S'{\xe1\x059'
p739
tp740
Rp741
ag3
(g7
S'\xc8\x9f\xbb:'
p742
tp743
Rp744
ag3
(g7
S'\xa1DQ:'
p745
tp746
Rp747
ag3
(g7
S'\x94\x83\x95;'
p748
tp749
Rp750
ag3
(g7
S'$\x11\x95:'
p751
tp752
Rp753
ag3
(g7
S'_|F;'
p754
tp755
Rp756
ag3
(g7
S'\x8d\xf8H;'
p757
tp758
Rp759
ag3
(g7
S'Am\xa08'
p760
tp761
Rp762
ag3
(g7
S'DX\x0b:'
p763
tp764
Rp765
ag3
(g7
S'QO\xd3:'
p766
tp767
Rp768
ag3
(g7
S'\xee\x89\xc7:'
p769
tp770
Rp771
ag3
(g7
S'\xc0\xaf\xcd:'
p772
tp773
Rp774
ag3
(g7
S'\xc1%O;'
p775
tp776
Rp777
ag3
(g7
S'\xc6\xa4&;'
p778
tp779
Rp780
ag3
(g7
S'\xa6w\xb99'
p781
tp782
Rp783
ag3
(g7
S'\xf1c\x81;'
p784
tp785
Rp786
ag3
(g7
S'\xb1~\x7f:'
p787
tp788
Rp789
ag3
(g7
S'4\xd0\xae:'
p790
tp791
Rp792
ag3
(g7
S'3\xb3\x859'
p793
tp794
Rp795
ag3
(g7
S'\xd1\xb2\x80:'
p796
tp797
Rp798
ag3
(g7
S'\xa4k\x84;'
p799
tp800
Rp801
ag3
(g7
S'\xa8\xe4\n;'
p802
tp803
Rp804
ag3
(g7
S'\xea\xaf@;'
p805
tp806
Rp807
ag3
(g7
S'\xd1\r\x92;'
p808
tp809
Rp810
ag3
(g7
S'\xaf\x17\xbc9'
p811
tp812
Rp813
ag3
(g7
S'\xc1\x01\x9a:'
p814
tp815
Rp816
ag3
(g7
S'nh\xf18'
p817
tp818
Rp819
ag3
(g7
S't\xa4F9'
p820
tp821
Rp822
ag3
(g7
S'\x93\xf7\x89:'
p823
tp824
Rp825
ag3
(g7
S'\x15-\xa2;'
p826
tp827
Rp828
ag3
(g7
S'X\xbf\xbd;'
p829
tp830
Rp831
ag3
(g7
S'\t\xa7L;'
p832
tp833
Rp834
ag3
(g7
S'\xec\x03\x84:'
p835
tp836
Rp837
ag3
(g7
S'\xb7\x1ba:'
p838
tp839
Rp840
ag3
(g7
S'\\\xb7W9'
p841
tp842
Rp843
ag3
(g7
S'\xe3nR;'
p844
tp845
Rp846
ag3
(g7
S'\xd2\xe5\xaf:'
p847
tp848
Rp849
ag3
(g7
S'\xa6\xf5T;'
p850
tp851
Rp852
ag3
(g7
S'/JR;'
p853
tp854
Rp855
ag3
(g7
S'X_\x83:'
p856
tp857
Rp858
ag3
(g7
S'\xcc[\xbf:'
p859
tp860
Rp861
ag3
(g7
S'T4{:'
p862
tp863
Rp864
ag3
(g7
S'\xdc\x060;'
p865
tp866
Rp867
ag3
(g7
S'\xfa\xe8\x89;'
p868
tp869
Rp870
ag3
(g7
S'\x88\x8c\xef;'
p871
tp872
Rp873
ag3
(g7
S'i[H;'
p874
tp875
Rp876
ag3
(g7
S'\x9d\xac\x82;'
p877
tp878
Rp879
ag3
(g7
S'SH9:'
p880
tp881
Rp882
ag3
(g7
S')\xbc\xab:'
p883
tp884
Rp885
ag3
(g7
S'=\x9b\x1c;'
p886
tp887
Rp888
ag3
(g7
S'\xca\xe2\xaa9'
p889
tp890
Rp891
ag3
(g7
S'w\xd8\x9a;'
p892
tp893
Rp894
ag3
(g7
S'O\x0c\xa89'
p895
tp896
Rp897
ag3
(g7
S'\x96\xd7K:'
p898
tp899
Rp900
ag3
(g7
S'\xae%\xcb;'
p901
tp902
Rp903
ag3
(g7
S'\xf6(?:'
p904
tp905
Rp906
ag3
(g7
S'3Y08'
p907
tp908
Rp909
ag3
(g7
S'\xe1\xba=;'
p910
tp911
Rp912
ag3
(g7
S'\xd6\x0c\x988'
p913
tp914
Rp915
ag3
(g7
S'(M\xc7:'
p916
tp917
Rp918
ag3
(g7
S'$!y:'
p919
tp920
Rp921
ag3
(g7
S'e\xad+9'
p922
tp923
Rp924
ag3
(g7
S'F\x97(<'
p925
tp926
Rp927
ag3
(g7
S'\xa6~\xa7:'
p928
tp929
Rp930
ag3
(g7
S'\x94\xad\xd1:'
p931
tp932
Rp933
ag3
(g7
S'x \x12;'
p934
tp935
Rp936
ag3
(g7
S'\x9bH ;'
p937
tp938
Rp939
ag3
(g7
S'\x8f\xd2\x999'
p940
tp941
Rp942
ag3
(g7
S'\x9a@&;'
p943
tp944
Rp945
ag3
(g7
S'\xf1\xb2\x7f;'
p946
tp947
Rp948
ag3
(g7
S'\x94\xc7|:'
p949
tp950
Rp951
ag3
(g7
S'Rk\x99;'
p952
tp953
Rp954
ag3
(g7
S',\xe0\x9c:'
p955
tp956
Rp957
ag3
(g7
S'q\xc7p;'
p958
tp959
Rp960
ag3
(g7
S'{\xee*;'
p961
tp962
Rp963
ag3
(g7
S'\x14\r\xa6:'
p964
tp965
Rp966
ag3
(g7
S'o\x12\x1a:'
p967
tp968
Rp969
ag3
(g7
S'\x8dL\x82:'
p970
tp971
Rp972
ag3
(g7
S'\n\xb4^:'
p973
tp974
Rp975
ag3
(g7
S'Vr\x1b;'
p976
tp977
Rp978
ag3
(g7
S'\xc8\x14\x01;'
p979
tp980
Rp981
ag3
(g7
S'\xba\xbcw9'
p982
tp983
Rp984
ag3
(g7
S'\x93\xd8L:'
p985
tp986
Rp987
ag3
(g7
S'\xcdJO;'
p988
tp989
Rp990
ag3
(g7
S'Fy8:'
p991
tp992
Rp993
ag3
(g7
S'/\x9d\x08;'
p994
tp995
Rp996
ag3
(g7
S'\xae<[:'
p997
tp998
Rp999
ag3
(g7
S'\xb1B3;'
p1000
tp1001
Rp1002
ag3
(g7
S'N\xe2\xd2:'
p1003
tp1004
Rp1005
ag3
(g7
S'\xd1,\xe6:'
p1006
tp1007
Rp1008
ag3
(g7
S'\x00\xcd\xad:'
p1009
tp1010
Rp1011
ag3
(g7
S'\xcc\xf8\xa6;'
p1012
tp1013
Rp1014
ag3
(g7
S"\x1f\xfd':"
p1015
tp1016
Rp1017
ag3
(g7
S'o\xdd^;'
p1018
tp1019
Rp1020
ag3
(g7
S'\xda\xa2\xf8:'
p1021
tp1022
Rp1023
ag3
(g7
S'\xa4p=7'
p1024
tp1025
Rp1026
ag3
(g7
S'\xa89A8'
p1027
tp1028
Rp1029
ag3
(g7
S'\x17\x00V;'
p1030
tp1031
Rp1032
ag3
(g7
S'1\x96w;'
p1033
tp1034
Rp1035
ag3
(g7
S'#\xed\xf99'
p1036
tp1037
Rp1038
ag3
(g7
S'\x00\x11\x9f9'
p1039
tp1040
Rp1041
ag3
(g7
S'\xb2t@:'
p1042
tp1043
Rp1044
ag3
(g7
S'L\xb8\xe6:'
p1045
tp1046
Rp1047
ag3
(g7
S'\xba\xc7 9'
p1048
tp1049
Rp1050
ag3
(g7
S'\xee\xc2\xa2:'
p1051
tp1052
Rp1053
ag3
(g7
S'|\xb5h9'
p1054
tp1055
Rp1056
ag3
(g7
S'\xf1h\xa8;'
p1057
tp1058
Rp1059
ag3
(g7
S'4\xa3D:'
p1060
tp1061
Rp1062
ag3
(g7
S"\x1a'\xc59"
p1063
tp1064
Rp1065
ag3
(g7
S'\x1d\xd7\xb3;'
p1066
tp1067
Rp1068
ag3
(g7
S'\xf1\xe3#;'
p1069
tp1070
Rp1071
ag3
(g7
S'*\xc2\xca7'
p1072
tp1073
Rp1074
ag3
(g7
S't \x93:'
p1075
tp1076
Rp1077
ag3
(g7
S'?P\x9e:'
p1078
tp1079
Rp1080
ag3
(g7
S'\xa3pQ:'
p1081
tp1082
Rp1083
ag3
(g7
S'i>\x08:'
p1084
tp1085
Rp1086
ag3
(g7
S'\xf6K\xdb:'
p1087
tp1088
Rp1089
ag3
(g7
S'_\xf6=9'
p1090
tp1091
Rp1092
ag3
(g7
S'2]\x15;'
p1093
tp1094
Rp1095
ag3
(g7
S'w\x0cw:'
p1096
tp1097
Rp1098
ag3
(g7
S'<\x84?:'
p1099
tp1100
Rp1101
ag3
(g7
S')q\x079'
p1102
tp1103
Rp1104
ag3
(g7
S'o\xe8\x18;'
p1105
tp1106
Rp1107
ag3
(g7
S'\xe4\xe9K;'
p1108
tp1109
Rp1110
ag3
(g7
S'\x80\x9b\xd79'
p1111
tp1112
Rp1113
ag3
(g7
S'\x94>q:'
p1114
tp1115
Rp1116
ag3
(g7
S'\x19\x04\x929'
p1117
tp1118
Rp1119
ag3
(g7
S'\xabJ\x18;'
p1120
tp1121
Rp1122
ag3
(g7
S'\xcc\xb9J:'
p1123
tp1124
Rp1125
ag3
(g7
S'N\xba\xa58'
p1126
tp1127
Rp1128
ag3
(g7
S'\x85\n5;'
p1129
tp1130
Rp1131
ag3
(g7
S'\xd7\x1319'
p1132
tp1133
Rp1134
ag3
(g7
S'\n\xd7\x98:'
p1135
tp1136
Rp1137
ag3
(g7
S'\xa4#\xd28'
p1138
tp1139
Rp1140
ag3
(g7
S't;y:'
p1141
tp1142
Rp1143
asS'lr'
p1144
g3
(g4
(S'f8'
p1145
I0
I1
tp1146
Rp1147
(I3
S'<'
p1148
NNNI-1
I-1
I0
tp1149
bS'}\xb0xL^X`?'
p1150
tp1151
Rp1152
sS'momentum'
p1153
g3
(g1147
S'\xf2\x8b%\xbfX\xf2\xeb?'
p1154
tp1155
Rp1156
s.